target datalayout = "e-m:e-p270:32:32-p271:32:32-p272:64:64-i64:64-i128:128-f80:128-n8:16:32:64-S128"
target triple = "x86_64-pc-linux-gnu"

%"struct.faiss::lsq::LSQTimer" = type { %"class.std::unordered_map" }
%"class.std::unordered_map" = type { %"class.std::_Hashtable" }
%"class.std::_Hashtable" = type { ptr, i64, %"struct.std::__detail::_Hash_node_base", i64, %"struct.std::__detail::_Prime_rehash_policy", ptr }
%"struct.std::__detail::_Hash_node_base" = type { ptr }
%"struct.std::__detail::_Prime_rehash_policy" = type { float, i64 }
%struct.ident_t = type { i32, i32, i32, i32, ptr }
%"class.std::__cxx11::basic_string" = type { %"struct.std::__cxx11::basic_string<char>::_Alloc_hider", i64, %union.anon }
%"struct.std::__cxx11::basic_string<char>::_Alloc_hider" = type { ptr }
%union.anon = type { i64, [8 x i8] }
%"struct.faiss::lsq::LSQTimerScope" = type <{ double, ptr, %"class.std::__cxx11::basic_string", i8, [7 x i8] }>
%"class.std::allocator.2" = type { i8 }

@_ZN5faiss9lsq_timerE = global %"struct.faiss::lsq::LSQTimer" zeroinitializer, align 8
@2 = private unnamed_addr constant %struct.ident_t { i32 0, i32 2, i32 0, i32 22, ptr @0 }, align 8
@.str.14 = private unnamed_addr constant [50 x i8] c"basic_string: construction from null is not valid\00", align 1
@.str.33 = private unnamed_addr constant [21 x i8] c"compute_binary_terms\00", align 1
@_ZN5faiss3lsq13LSQTimerScopeC1EPNS0_8LSQTimerENSt7__cxx1112basic_stringIcSt11char_traitsIcESaIcEEE = unnamed_addr alias void (ptr, ptr, ptr), ptr @_ZN5faiss3lsq13LSQTimerScopeC2EPNS0_8LSQTimerENSt7__cxx1112basic_stringIcSt11char_traitsIcESaIcEEE
@_ZN5faiss3lsq13LSQTimerScopeD1Ev = unnamed_addr alias void (ptr), ptr @_ZN5faiss3lsq13LSQTimerScopeD2Ev

; Function Attrs: mustprogress nounwind uwtable
define linkonce_odr noundef i64 @_ZNSt11char_traitsIcE6lengthEPKc(ptr noundef %0) #0 comdat align 2 {
  %2 = alloca ptr, align 8
  store ptr %0, ptr %2, align 8
  %3 = load ptr, ptr %2, align 8
  %4 = call i64 @strlen(ptr noundef %3) #4
  ret i64 %4
}

; Function Attrs: mustprogress nounwind uwtable
define linkonce_odr void @_ZNSt7__cxx1112basic_stringIcSt11char_traitsIcESaIcEE12_Alloc_hiderD2Ev(ptr noundef nonnull align 8 dereferenceable(8) %0) unnamed_addr #0 comdat align 2 {
  %2 = alloca ptr, align 8
  store ptr %0, ptr %2, align 8
  %3 = load ptr, ptr %2, align 8
  call void @_ZNSaIcED2Ev(ptr noundef nonnull align 1 dereferenceable(1) %3) #4
  ret void
}

; Function Attrs: mustprogress uwtable
define linkonce_odr void @_ZNSt7__cxx1112basic_stringIcSt11char_traitsIcESaIcEEC2IS3_EEPKcRKS3_(ptr noundef nonnull align 8 dereferenceable(32) %0, ptr noundef %1, ptr noundef nonnull align 1 dereferenceable(1) %2) unnamed_addr #1 comdat align 2 personality ptr @__gxx_personality_v0 {
  %4 = alloca ptr, align 8
  %5 = alloca ptr, align 8
  %6 = alloca ptr, align 8
  %7 = alloca ptr, align 8
  %8 = alloca i32, align 4
  %9 = alloca ptr, align 8
  store ptr %0, ptr %4, align 8
  store ptr %1, ptr %5, align 8
  store ptr %2, ptr %6, align 8
  %10 = load ptr, ptr %4, align 8
  %11 = getelementptr inbounds %"class.std::__cxx11::basic_string", ptr %10, i32 0, i32 0
  %12 = call noundef ptr @_ZNSt7__cxx1112basic_stringIcSt11char_traitsIcESaIcEE13_M_local_dataEv(ptr noundef nonnull align 8 dereferenceable(32) %10)
  %13 = load ptr, ptr %6, align 8
  call void @_ZNSt7__cxx1112basic_stringIcSt11char_traitsIcESaIcEE12_Alloc_hiderC1EPcRKS3_(ptr noundef nonnull align 8 dereferenceable(8) %11, ptr noundef %12, ptr noundef nonnull align 1 dereferenceable(1) %13)
  %14 = load ptr, ptr %5, align 8
  %15 = icmp eq ptr %14, null
  br i1 %15, label %16, label %22

16:                                               ; preds = %3
  invoke void @_ZSt19__throw_logic_errorPKc(ptr noundef @.str.14) #19
          to label %17 unwind label %18

17:                                               ; preds = %16
  unreachable

18:                                               ; preds = %26, %22, %16
  %19 = landingpad { ptr, i32 }
          cleanup
  %20 = extractvalue { ptr, i32 } %19, 0
  store ptr %20, ptr %7, align 8
  %21 = extractvalue { ptr, i32 } %19, 1
  store i32 %21, ptr %8, align 4
  call void @_ZNSt7__cxx1112basic_stringIcSt11char_traitsIcESaIcEE12_Alloc_hiderD2Ev(ptr noundef nonnull align 8 dereferenceable(8) %11) #4
  br label %31

22:                                               ; preds = %3
  %23 = load ptr, ptr %5, align 8
  %24 = load ptr, ptr %5, align 8
  %25 = invoke noundef i64 @_ZNSt11char_traitsIcE6lengthEPKc(ptr noundef %24)
          to label %26 unwind label %18

26:                                               ; preds = %22
  %27 = getelementptr inbounds i8, ptr %23, i64 %25
  store ptr %27, ptr %9, align 8
  %28 = load ptr, ptr %5, align 8
  %29 = load ptr, ptr %9, align 8
  invoke void @_ZNSt7__cxx1112basic_stringIcSt11char_traitsIcESaIcEE12_M_constructIPKcEEvT_S8_St20forward_iterator_tag(ptr noundef nonnull align 8 dereferenceable(32) %10, ptr noundef %28, ptr noundef %29)
          to label %30 unwind label %18

30:                                               ; preds = %26
  ret void

31:                                               ; preds = %18
  %32 = load ptr, ptr %7, align 8
  %33 = load i32, ptr %8, align 4
  %34 = insertvalue { ptr, i32 } poison, ptr %32, 0
  %35 = insertvalue { ptr, i32 } %34, i32 %33, 1
  resume { ptr, i32 } %35
}

; Function Attrs: mustprogress uwtable
define void @_ZNK5faiss20LocalSearchQuantizer20compute_binary_termsEPf(ptr noundef nonnull align 8 dereferenceable(393) %0, ptr noundef %1) #1 align 2 personality ptr @__gxx_personality_v0 {
  %3 = alloca ptr, align 8
  %4 = alloca ptr, align 8
  %5 = alloca %"struct.faiss::lsq::LSQTimerScope", align 8
  %6 = alloca %"class.std::__cxx11::basic_string", align 8
  %7 = alloca %"class.std::allocator.2", align 1
  %8 = alloca ptr, align 8
  %9 = alloca i32, align 4
  store ptr %0, ptr %3, align 8
  store ptr %1, ptr %4, align 8
  %10 = load ptr, ptr %3, align 8
  call void @_ZNSaIcEC1Ev(ptr noundef nonnull align 1 dereferenceable(1) %7) #4
  invoke void @_ZNSt7__cxx1112basic_stringIcSt11char_traitsIcESaIcEEC2IS3_EEPKcRKS3_(ptr noundef nonnull align 8 dereferenceable(32) %6, ptr noundef @.str.33, ptr noundef nonnull align 1 dereferenceable(1) %7)
          to label %11 unwind label %13

11:                                               ; preds = %2
  invoke void @_ZN5faiss3lsq13LSQTimerScopeC1EPNS0_8LSQTimerENSt7__cxx1112basic_stringIcSt11char_traitsIcESaIcEEE(ptr noundef nonnull align 8 dereferenceable(49) %5, ptr noundef @_ZN5faiss9lsq_timerE, ptr noundef %6)
          to label %12 unwind label %17

12:                                               ; preds = %11
  call void @_ZNSt7__cxx1112basic_stringIcSt11char_traitsIcESaIcEED1Ev(ptr noundef nonnull align 8 dereferenceable(32) %6) #4
  call void @_ZNSaIcED1Ev(ptr noundef nonnull align 1 dereferenceable(1) %7) #4
  call void (ptr, i32, ptr, ...) @__kmpc_fork_call(ptr @2, i32 2, ptr @_ZNK5faiss20LocalSearchQuantizer20compute_binary_termsEPf.omp_outlined, ptr %10, ptr %4)
  call void @_ZN5faiss3lsq13LSQTimerScopeD1Ev(ptr noundef nonnull align 8 dereferenceable(49) %5) #4
  ret void

13:                                               ; preds = %2
  %14 = landingpad { ptr, i32 }
          cleanup
  %15 = extractvalue { ptr, i32 } %14, 0
  store ptr %15, ptr %8, align 8
  %16 = extractvalue { ptr, i32 } %14, 1
  store i32 %16, ptr %9, align 4
  br label %21

17:                                               ; preds = %11
  %18 = landingpad { ptr, i32 }
          cleanup
  %19 = extractvalue { ptr, i32 } %18, 0
  store ptr %19, ptr %8, align 8
  %20 = extractvalue { ptr, i32 } %18, 1
  store i32 %20, ptr %9, align 4
  call void @_ZNSt7__cxx1112basic_stringIcSt11char_traitsIcESaIcEED1Ev(ptr noundef nonnull align 8 dereferenceable(32) %6) #4
  br label %21

21:                                               ; preds = %17, %13
  call void @_ZNSaIcED1Ev(ptr noundef nonnull align 1 dereferenceable(1) %7) #4
  br label %22

22:                                               ; preds = %21
  %23 = load ptr, ptr %8, align 8
  %24 = load i32, ptr %9, align 4
  %25 = insertvalue { ptr, i32 } poison, ptr %23, 0
  %26 = insertvalue { ptr, i32 } %25, i32 %24, 1
  resume { ptr, i32 } %26
}